/*
 * Intel ACPI Component Architecture
 * AML/ASL+ Disassembler version 20230628 (64-bit version)
 * Copyright (c) 2000 - 2023 Intel Corporation
 * 
 * Disassembly of ./NPKT, Tue Mar  5 17:36:18 2024
 *
 * ACPI Data Table [NPKT]
 *
 * Format: [HexOffset DecimalOffset ByteLength]  FieldName : FieldValue (in hex)
 */

[000h 0000 004h]                   Signature : "NPKT"    
[004h 0004 004h]                Table Length : 00000065
[008h 0008 001h]                    Revision : 01
[009h 0009 001h]                    Checksum : 60
[00Ah 0010 006h]                      Oem ID : "INTEL "
[010h 0016 008h]                Oem Table ID : "GLK-SOC "
[018h 0024 004h]                Oem Revision : 00000003
[01Ch 0028 004h]             Asl Compiler ID : "BRXT"
[020h 0032 004h]       Asl Compiler Revision : 0100000D


**** Unknown ACPI table signature [NPKT]


Raw Table Data: Length 101 (0x65)

    0000: 4E 50 4B 54 65 00 00 00 01 60 49 4E 54 45 4C 20  // NPKTe....`INTEL 
    0010: 47 4C 4B 2D 53 4F 43 20 03 00 00 00 42 52 58 54  // GLK-SOC ....BRXT
    0020: 0D 00 00 01 00 00 00 00 00 00 00 00 00 00 00 00  // ................
    0030: 00 00 00 00 00 00 00 00 00 00 00 00 00 00 00 00  // ................
    0040: 00 00 00 00 00 00 00 00 00 00 00 00 00 00 00 00  // ................
    0050: 00 00 00 00 00 00 00 00 00 00 00 00 00 00 00 00  // ................
    0060: 00 00 00 00 00                                   // .....
