/*
 * Intel ACPI Component Architecture
 * AML/ASL+ Disassembler version 20230628 (64-bit version)
 * Copyright (c) 2000 - 2023 Intel Corporation
 * 
 * Disassembly of ./UEFI, Tue Mar  5 17:36:18 2024
 *
 * ACPI Data Table [UEFI]
 *
 * Format: [HexOffset DecimalOffset ByteLength]  FieldName : FieldValue (in hex)
 */

[000h 0000 004h]                   Signature : "UEFI"    [UEFI Boot Optimization Table]
[004h 0004 004h]                Table Length : 00000048
[008h 0008 001h]                    Revision : 01
[009h 0009 001h]                    Checksum : 1B
[00Ah 0010 006h]                      Oem ID : "ALASKA"
[010h 0016 008h]                Oem Table ID : "A M I "
[018h 0024 004h]                Oem Revision : 00000002
[01Ch 0028 004h]             Asl Compiler ID : "    "
[020h 0032 004h]       Asl Compiler Revision : 01000013

[024h 0036 010h]             UUID Identifier : C68ED8E2-9DC6-4CBD-9D94-DB65ACC5C332
[034h 0052 002h]                 Data Offset : 0038

Raw Table Data: Length 72 (0x48)

    0000: 55 45 46 49 48 00 00 00 01 1B 41 4C 41 53 4B 41  // UEFIH.....ALASKA
    0010: 41 20 4D 20 49 20 00 00 02 00 00 00 20 20 20 20  // A M I ......    
    0020: 13 00 00 01 E2 D8 8E C6 C6 9D BD 4C 9D 94 DB 65  // ...........L...e
    0030: AC C5 C3 32 38 00 00 00 01 00 00 00 00 00 00 00  // ...28...........
    0040: 00 50 A6 79 00 00 00 00                          // .P.y....
